target datalayout = "e-m:e-p270:32:32-p271:32:32-p272:64:64-i64:64-i128:128-f80:128-n8:16:32:64-S128"
target triple = "x86_64-pc-linux-gnu"

%struct.ec_group_st = type { ptr, ptr, ptr, ptr, i32, i32, i32, i32, ptr, i64, ptr, [6 x i32], ptr, ptr, i32, ptr, ptr, ptr, ptr, i32, %union.anon, ptr, ptr }
%union.anon = type { ptr }
%struct.ec_method_st = type { i32, i32, ptr, ptr, ptr, ptr, ptr, ptr, ptr, ptr, ptr, ptr, ptr, ptr, ptr, ptr, ptr, ptr, ptr, ptr, ptr, ptr, ptr, ptr, ptr, ptr, ptr, ptr, ptr, ptr, ptr, ptr, ptr, ptr, ptr, ptr, ptr, ptr, ptr, ptr, ptr, ptr, ptr, ptr, ptr, ptr, ptr, ptr, ptr, ptr, ptr, ptr, ptr, ptr, ptr, ptr, ptr }

@.str = private unnamed_addr constant [31 x i8] c"../openssl/crypto/ec/ec2_oct.c\00", align 1
@__func__.ossl_ec_GF2m_simple_point2oct = private unnamed_addr constant [30 x i8] c"ossl_ec_GF2m_simple_point2oct\00", align 1

; Function Attrs: nounwind uwtable
define i64 @ossl_ec_GF2m_simple_point2oct(ptr noundef %0, ptr noundef %1, i32 noundef %2, ptr noundef %3, i64 noundef %4, ptr noundef %5) #0 {
  %7 = alloca i64, align 8
  %8 = alloca ptr, align 8
  %9 = alloca ptr, align 8
  %10 = alloca i32, align 4
  %11 = alloca ptr, align 8
  %12 = alloca i64, align 8
  %13 = alloca ptr, align 8
  %14 = alloca i64, align 8
  %15 = alloca i32, align 4
  %16 = alloca ptr, align 8
  %17 = alloca ptr, align 8
  %18 = alloca ptr, align 8
  %19 = alloca i64, align 8
  %20 = alloca i64, align 8
  %21 = alloca i64, align 8
  %22 = alloca ptr, align 8
  %23 = alloca i32, align 4
  store ptr %0, ptr %8, align 8, !tbaa !3
  store ptr %1, ptr %9, align 8, !tbaa !8
  store i32 %2, ptr %10, align 4, !tbaa !12
  store ptr %3, ptr %11, align 8, !tbaa !30
  store i64 %4, ptr %12, align 8, !tbaa !28
  store ptr %5, ptr %13, align 8, !tbaa !14
  call void @llvm.lifetime.start.p0(i64 8, ptr %14) #4
  call void @llvm.lifetime.start.p0(i64 4, ptr %15) #4
  store i32 0, ptr %15, align 4, !tbaa !12
  call void @llvm.lifetime.start.p0(i64 8, ptr %16) #4
  call void @llvm.lifetime.start.p0(i64 8, ptr %17) #4
  call void @llvm.lifetime.start.p0(i64 8, ptr %18) #4
  call void @llvm.lifetime.start.p0(i64 8, ptr %19) #4
  call void @llvm.lifetime.start.p0(i64 8, ptr %20) #4
  call void @llvm.lifetime.start.p0(i64 8, ptr %21) #4
  call void @llvm.lifetime.start.p0(i64 8, ptr %22) #4
  store ptr null, ptr %22, align 8, !tbaa !14
  %24 = load i32, ptr %10, align 4, !tbaa !12
  %25 = icmp ne i32 %24, 2
  br i1 %25, label %26, label %33

26:                                               ; preds = %6
  %27 = load i32, ptr %10, align 4, !tbaa !12
  %28 = icmp ne i32 %27, 4
  br i1 %28, label %29, label %33

29:                                               ; preds = %26
  %30 = load i32, ptr %10, align 4, !tbaa !12
  %31 = icmp ne i32 %30, 6
  br i1 %31, label %32, label %33

32:                                               ; preds = %29
  call void @ERR_new()
  call void @ERR_set_debug(ptr noundef @.str, i32 noundef 141, ptr noundef @__func__.ossl_ec_GF2m_simple_point2oct)
  call void (i32, i32, ptr, ...) @ERR_set_error(i32 noundef 16, i32 noundef 104, ptr noundef null)
  br label %228

33:                                               ; preds = %29, %26, %6
  %34 = load ptr, ptr %8, align 8, !tbaa !3
  %35 = load ptr, ptr %9, align 8, !tbaa !8
  %36 = call i32 @EC_POINT_is_at_infinity(ptr noundef %34, ptr noundef %35)
  %37 = icmp ne i32 %36, 0
  br i1 %37, label %38, label %49

38:                                               ; preds = %33
  %39 = load ptr, ptr %11, align 8, !tbaa !30
  %40 = icmp ne ptr %39, null
  br i1 %40, label %41, label %48

41:                                               ; preds = %38
  %42 = load i64, ptr %12, align 8, !tbaa !28
  %43 = icmp ult i64 %42, 1
  br i1 %43, label %44, label %45

44:                                               ; preds = %41
  call void @ERR_new()
  call void @ERR_set_debug(ptr noundef @.str, i32 noundef 149, ptr noundef @__func__.ossl_ec_GF2m_simple_point2oct)
  call void (i32, i32, ptr, ...) @ERR_set_error(i32 noundef 16, i32 noundef 100, ptr noundef null)
  store i64 0, ptr %7, align 8
  store i32 1, ptr %23, align 4
  br label %235

45:                                               ; preds = %41
  %46 = load ptr, ptr %11, align 8, !tbaa !30
  %47 = getelementptr inbounds i8, ptr %46, i64 0
  store i8 0, ptr %47, align 1, !tbaa !31
  br label %48

48:                                               ; preds = %45, %38
  store i64 1, ptr %7, align 8
  store i32 1, ptr %23, align 4
  br label %235

49:                                               ; preds = %33
  %50 = load ptr, ptr %8, align 8, !tbaa !3
  %51 = call i32 @EC_GROUP_get_degree(ptr noundef %50)
  %52 = add nsw i32 %51, 7
  %53 = sdiv i32 %52, 8
  %54 = sext i32 %53 to i64
  store i64 %54, ptr %19, align 8, !tbaa !28
  %55 = load i32, ptr %10, align 4, !tbaa !12
  %56 = icmp eq i32 %55, 2
  br i1 %56, label %57, label %60

57:                                               ; preds = %49
  %58 = load i64, ptr %19, align 8, !tbaa !28
  %59 = add i64 1, %58
  br label %64

60:                                               ; preds = %49
  %61 = load i64, ptr %19, align 8, !tbaa !28
  %62 = mul i64 2, %61
  %63 = add i64 1, %62
  br label %64

64:                                               ; preds = %60, %57
  %65 = phi i64 [ %59, %57 ], [ %63, %60 ]
  store i64 %65, ptr %14, align 8, !tbaa !28
  %66 = load ptr, ptr %11, align 8, !tbaa !30
  %67 = icmp ne ptr %66, null
  br i1 %67, label %68, label %220

68:                                               ; preds = %64
  %69 = load i64, ptr %12, align 8, !tbaa !28
  %70 = load i64, ptr %14, align 8, !tbaa !28
  %71 = icmp ult i64 %69, %70
  br i1 %71, label %72, label %73

72:                                               ; preds = %68
  call void @ERR_new()
  call void @ERR_set_debug(ptr noundef @.str, i32 noundef 166, ptr noundef @__func__.ossl_ec_GF2m_simple_point2oct)
  call void (i32, i32, ptr, ...) @ERR_set_error(i32 noundef 16, i32 noundef 100, ptr noundef null)
  br label %228

73:                                               ; preds = %68
  %74 = load ptr, ptr %13, align 8, !tbaa !14
  %75 = icmp eq ptr %74, null
  br i1 %75, label %76, label %82

76:                                               ; preds = %73
  %77 = call ptr @BN_CTX_new()
  store ptr %77, ptr %22, align 8, !tbaa !14
  store ptr %77, ptr %13, align 8, !tbaa !14
  %78 = load ptr, ptr %13, align 8, !tbaa !14
  %79 = icmp eq ptr %78, null
  br i1 %79, label %80, label %81

80:                                               ; preds = %76
  store i64 0, ptr %7, align 8
  store i32 1, ptr %23, align 4
  br label %235

81:                                               ; preds = %76
  br label %82

82:                                               ; preds = %81, %73
  %83 = load ptr, ptr %13, align 8, !tbaa !14
  call void @BN_CTX_start(ptr noundef %83)
  store i32 1, ptr %15, align 4, !tbaa !12
  %84 = load ptr, ptr %13, align 8, !tbaa !14
  %85 = call ptr @BN_CTX_get(ptr noundef %84)
  store ptr %85, ptr %16, align 8, !tbaa !10
  %86 = load ptr, ptr %13, align 8, !tbaa !14
  %87 = call ptr @BN_CTX_get(ptr noundef %86)
  store ptr %87, ptr %17, align 8, !tbaa !10
  %88 = load ptr, ptr %13, align 8, !tbaa !14
  %89 = call ptr @BN_CTX_get(ptr noundef %88)
  store ptr %89, ptr %18, align 8, !tbaa !10
  %90 = load ptr, ptr %18, align 8, !tbaa !10
  %91 = icmp eq ptr %90, null
  br i1 %91, label %92, label %93

92:                                               ; preds = %82
  br label %228

93:                                               ; preds = %82
  %94 = load ptr, ptr %8, align 8, !tbaa !3
  %95 = load ptr, ptr %9, align 8, !tbaa !8
  %96 = load ptr, ptr %16, align 8, !tbaa !10
  %97 = load ptr, ptr %17, align 8, !tbaa !10
  %98 = load ptr, ptr %13, align 8, !tbaa !14
  %99 = call i32 @EC_POINT_get_affine_coordinates(ptr noundef %94, ptr noundef %95, ptr noundef %96, ptr noundef %97, ptr noundef %98)
  %100 = icmp ne i32 %99, 0
  br i1 %100, label %102, label %101

101:                                              ; preds = %93
  br label %228

102:                                              ; preds = %93
  %103 = load i32, ptr %10, align 4, !tbaa !12
  %104 = trunc i32 %103 to i8
  %105 = load ptr, ptr %11, align 8, !tbaa !30
  %106 = getelementptr inbounds i8, ptr %105, i64 0
  store i8 %104, ptr %106, align 1, !tbaa !31
  %107 = load i32, ptr %10, align 4, !tbaa !12
  %108 = icmp ne i32 %107, 4
  br i1 %108, label %109, label %137

109:                                              ; preds = %102
  %110 = load ptr, ptr %16, align 8, !tbaa !10
  %111 = call i32 @BN_is_zero(ptr noundef %110)
  %112 = icmp ne i32 %111, 0
  br i1 %112, label %137, label %113

113:                                              ; preds = %109
  %114 = load ptr, ptr %8, align 8, !tbaa !3
  %115 = getelementptr inbounds nuw %struct.ec_group_st, ptr %114, i32 0, i32 0
  %116 = load ptr, ptr %115, align 8, !tbaa !23
  %117 = getelementptr inbounds nuw %struct.ec_method_st, ptr %116, i32 0, i32 34
  %118 = load ptr, ptr %117, align 8, !tbaa !26
  %119 = load ptr, ptr %8, align 8, !tbaa !3
  %120 = load ptr, ptr %18, align 8, !tbaa !10
  %121 = load ptr, ptr %17, align 8, !tbaa !10
  %122 = load ptr, ptr %16, align 8, !tbaa !10
  %123 = load ptr, ptr %13, align 8, !tbaa !14
  %124 = call i32 %118(ptr noundef %119, ptr noundef %120, ptr noundef %121, ptr noundef %122, ptr noundef %123)
  %125 = icmp ne i32 %124, 0
  br i1 %125, label %127, label %126

126:                                              ; preds = %113
  br label %228

127:                                              ; preds = %113
  %128 = load ptr, ptr %18, align 8, !tbaa !10
  %129 = call i32 @BN_is_odd(ptr noundef %128)
  %130 = icmp ne i32 %129, 0
  br i1 %130, label %131, label %136

131:                                              ; preds = %127
  %132 = load ptr, ptr %11, align 8, !tbaa !30
  %133 = getelementptr inbounds i8, ptr %132, i64 0
  %134 = load i8, ptr %133, align 1, !tbaa !31
  %135 = add i8 %134, 1
  store i8 %135, ptr %133, align 1, !tbaa !31
  br label %136

136:                                              ; preds = %131, %127
  br label %137

137:                                              ; preds = %136, %109, %102
  store i64 1, ptr %20, align 8, !tbaa !28
  %138 = load i64, ptr %19, align 8, !tbaa !28
  %139 = load ptr, ptr %16, align 8, !tbaa !10
  %140 = call i32 @BN_num_bits(ptr noundef %139)
  %141 = add nsw i32 %140, 7
  %142 = sdiv i32 %141, 8
  %143 = sext i32 %142 to i64
  %144 = sub i64 %138, %143
  store i64 %144, ptr %21, align 8, !tbaa !28
  %145 = load i64, ptr %21, align 8, !tbaa !28
  %146 = load i64, ptr %19, align 8, !tbaa !28
  %147 = icmp ugt i64 %145, %146
  br i1 %147, label %148, label %149

148:                                              ; preds = %137
  call void @ERR_new()
  call void @ERR_set_debug(ptr noundef @.str, i32 noundef 201, ptr noundef @__func__.ossl_ec_GF2m_simple_point2oct)
  call void (i32, i32, ptr, ...) @ERR_set_error(i32 noundef 16, i32 noundef 786691, ptr noundef null)
  br label %228

149:                                              ; preds = %137
  br label %150

150:                                              ; preds = %153, %149
  %151 = load i64, ptr %21, align 8, !tbaa !28
  %152 = icmp ugt i64 %151, 0
  br i1 %152, label %153, label %160

153:                                              ; preds = %150
  %154 = load ptr, ptr %11, align 8, !tbaa !30
  %155 = load i64, ptr %20, align 8, !tbaa !28
  %156 = add i64 %155, 1
  store i64 %156, ptr %20, align 8, !tbaa !28
  %157 = getelementptr inbounds nuw i8, ptr %154, i64 %155
  store i8 0, ptr %157, align 1, !tbaa !31
  %158 = load i64, ptr %21, align 8, !tbaa !28
  %159 = add i64 %158, -1
  store i64 %159, ptr %21, align 8, !tbaa !28
  br label %150, !llvm.loop !32

160:                                              ; preds = %150
  %161 = load ptr, ptr %16, align 8, !tbaa !10
  %162 = load ptr, ptr %11, align 8, !tbaa !30
  %163 = load i64, ptr %20, align 8, !tbaa !28
  %164 = getelementptr inbounds nuw i8, ptr %162, i64 %163
  %165 = call i32 @BN_bn2bin(ptr noundef %161, ptr noundef %164)
  %166 = sext i32 %165 to i64
  store i64 %166, ptr %21, align 8, !tbaa !28
  %167 = load i64, ptr %21, align 8, !tbaa !28
  %168 = load i64, ptr %20, align 8, !tbaa !28
  %169 = add i64 %168, %167
  store i64 %169, ptr %20, align 8, !tbaa !28
  %170 = load i64, ptr %20, align 8, !tbaa !28
  %171 = load i64, ptr %19, align 8, !tbaa !28
  %172 = add i64 1, %171
  %173 = icmp ne i64 %170, %172
  br i1 %173, label %174, label %175

174:                                              ; preds = %160
  call void @ERR_new()
  call void @ERR_set_debug(ptr noundef @.str, i32 noundef 211, ptr noundef @__func__.ossl_ec_GF2m_simple_point2oct)
  call void (i32, i32, ptr, ...) @ERR_set_error(i32 noundef 16, i32 noundef 786691, ptr noundef null)
  br label %228

175:                                              ; preds = %160
  %176 = load i32, ptr %10, align 4, !tbaa !12
  %177 = icmp eq i32 %176, 4
  br i1 %177, label %181, label %178

178:                                              ; preds = %175
  %179 = load i32, ptr %10, align 4, !tbaa !12
  %180 = icmp eq i32 %179, 6
  br i1 %180, label %181, label %214

181:                                              ; preds = %178, %175
  %182 = load i64, ptr %19, align 8, !tbaa !28
  %183 = load ptr, ptr %17, align 8, !tbaa !10
  %184 = call i32 @BN_num_bits(ptr noundef %183)
  %185 = add nsw i32 %184, 7
  %186 = sdiv i32 %185, 8
  %187 = sext i32 %186 to i64
  %188 = sub i64 %182, %187
  store i64 %188, ptr %21, align 8, !tbaa !28
  %189 = load i64, ptr %21, align 8, !tbaa !28
  %190 = load i64, ptr %19, align 8, !tbaa !28
  %191 = icmp ugt i64 %189, %190
  br i1 %191, label %192, label %193

192:                                              ; preds = %181
  call void @ERR_new()
  call void @ERR_set_debug(ptr noundef @.str, i32 noundef 219, ptr noundef @__func__.ossl_ec_GF2m_simple_point2oct)
  call void (i32, i32, ptr, ...) @ERR_set_error(i32 noundef 16, i32 noundef 786691, ptr noundef null)
  br label %228

193:                                              ; preds = %181
  br label %194

194:                                              ; preds = %197, %193
  %195 = load i64, ptr %21, align 8, !tbaa !28
  %196 = icmp ugt i64 %195, 0
  br i1 %196, label %197, label %204

197:                                              ; preds = %194
  %198 = load ptr, ptr %11, align 8, !tbaa !30
  %199 = load i64, ptr %20, align 8, !tbaa !28
  %200 = add i64 %199, 1
  store i64 %200, ptr %20, align 8, !tbaa !28
  %201 = getelementptr inbounds nuw i8, ptr %198, i64 %199
  store i8 0, ptr %201, align 1, !tbaa !31
  %202 = load i64, ptr %21, align 8, !tbaa !28
  %203 = add i64 %202, -1
  store i64 %203, ptr %21, align 8, !tbaa !28
  br label %194, !llvm.loop !34

204:                                              ; preds = %194
  %205 = load ptr, ptr %17, align 8, !tbaa !10
  %206 = load ptr, ptr %11, align 8, !tbaa !30
  %207 = load i64, ptr %20, align 8, !tbaa !28
  %208 = getelementptr inbounds nuw i8, ptr %206, i64 %207
  %209 = call i32 @BN_bn2bin(ptr noundef %205, ptr noundef %208)
  %210 = sext i32 %209 to i64
  store i64 %210, ptr %21, align 8, !tbaa !28
  %211 = load i64, ptr %21, align 8, !tbaa !28
  %212 = load i64, ptr %20, align 8, !tbaa !28
  %213 = add i64 %212, %211
  store i64 %213, ptr %20, align 8, !tbaa !28
  br label %214

214:                                              ; preds = %204, %178
  %215 = load i64, ptr %20, align 8, !tbaa !28
  %216 = load i64, ptr %14, align 8, !tbaa !28
  %217 = icmp ne i64 %215, %216
  br i1 %217, label %218, label %219

218:                                              ; preds = %214
  call void @ERR_new()
  call void @ERR_set_debug(ptr noundef @.str, i32 noundef 231, ptr noundef @__func__.ossl_ec_GF2m_simple_point2oct)
  call void (i32, i32, ptr, ...) @ERR_set_error(i32 noundef 16, i32 noundef 786691, ptr noundef null)
  br label %228

219:                                              ; preds = %214
  br label %220

220:                                              ; preds = %219, %64
  %221 = load i32, ptr %15, align 4, !tbaa !12
  %222 = icmp ne i32 %221, 0
  br i1 %222, label %223, label %225

223:                                              ; preds = %220
  %224 = load ptr, ptr %13, align 8, !tbaa !14
  call void @BN_CTX_end(ptr noundef %224)
  br label %225

225:                                              ; preds = %223, %220
  %226 = load ptr, ptr %22, align 8, !tbaa !14
  call void @BN_CTX_free(ptr noundef %226)
  %227 = load i64, ptr %14, align 8, !tbaa !28
  store i64 %227, ptr %7, align 8
  store i32 1, ptr %23, align 4
  br label %235

228:                                              ; preds = %218, %192, %174, %148, %126, %101, %92, %72, %32
  %229 = load i32, ptr %15, align 4, !tbaa !12
  %230 = icmp ne i32 %229, 0
  br i1 %230, label %231, label %233

231:                                              ; preds = %228
  %232 = load ptr, ptr %13, align 8, !tbaa !14
  call void @BN_CTX_end(ptr noundef %232)
  br label %233

233:                                              ; preds = %231, %228
  %234 = load ptr, ptr %22, align 8, !tbaa !14
  call void @BN_CTX_free(ptr noundef %234)
  store i64 0, ptr %7, align 8
  store i32 1, ptr %23, align 4
  br label %235

235:                                              ; preds = %233, %225, %80, %48, %44
  call void @llvm.lifetime.end.p0(i64 8, ptr %22) #4
  call void @llvm.lifetime.end.p0(i64 8, ptr %21) #4
  call void @llvm.lifetime.end.p0(i64 8, ptr %20) #4
  call void @llvm.lifetime.end.p0(i64 8, ptr %19) #4
  call void @llvm.lifetime.end.p0(i64 8, ptr %18) #4
  call void @llvm.lifetime.end.p0(i64 8, ptr %17) #4
  call void @llvm.lifetime.end.p0(i64 8, ptr %16) #4
  call void @llvm.lifetime.end.p0(i64 4, ptr %15) #4
  call void @llvm.lifetime.end.p0(i64 8, ptr %14) #4
  %236 = load i64, ptr %7, align 8
  ret i64 %236
}