; Function Attrs: nounwind uwtable
define range(i64 -536870909, 536870912) i64 @ossl_ec_GF2m_simple_point2oct(ptr noundef %0, ptr noundef %1, i32 noundef %2, ptr noundef %3, i64 noundef %4, ptr noundef %5) local_unnamed_addr #0 {
  %.not127 = icmp eq i32 %2, 4
  switch i32 %2, label %7 [
    i32 6, label %8
    i32 4, label %8
    i32 2, label %8
  ]

7:                                                ; preds = %6
  tail call void @ERR_new() #3
  tail call void @ERR_set_debug(ptr noundef nonnull @.str, i32 noundef 141, ptr noundef nonnull @__func__.ossl_ec_GF2m_simple_point2oct) #3
  tail call void (i32, i32, ptr, ...) @ERR_set_error(i32 noundef 16, i32 noundef 104, ptr noundef null) #3
  br label %81

8:                                                ; preds = %6, %6, %6
  %9 = tail call i32 @EC_POINT_is_at_infinity(ptr noundef %0, ptr noundef %1) #3
  %.not = icmp eq i32 %9, 0
  br i1 %.not, label %15, label %10

10:                                               ; preds = %8
  %.not115 = icmp eq ptr %3, null
  br i1 %.not115, label %82, label %11

11:                                               ; preds = %10
  %12 = icmp eq i64 %4, 0
  br i1 %12, label %13, label %14

13:                                               ; preds = %11
  tail call void @ERR_new() #3
  tail call void @ERR_set_debug(ptr noundef nonnull @.str, i32 noundef 149, ptr noundef nonnull @__func__.ossl_ec_GF2m_simple_point2oct) #3
  tail call void (i32, i32, ptr, ...) @ERR_set_error(i32 noundef 16, i32 noundef 100, ptr noundef null) #3
  br label %82

14:                                               ; preds = %11
  store i8 0, ptr %3, align 1, !tbaa !22
  br label %82

15:                                               ; preds = %8
  %16 = tail call i32 @EC_GROUP_get_degree(ptr noundef %0) #3
  %17 = add nsw i32 %16, 7
  %18 = sdiv i32 %17, 8
  %19 = sext i32 %18 to i64
  %20 = icmp eq i32 %2, 2
  %21 = add nsw i64 %19, 1
  %22 = shl nsw i64 %19, 1
  %23 = or disjoint i64 %22, 1
  %24 = select i1 %20, i64 %21, i64 %23
  %.not103 = icmp eq ptr %3, null
  br i1 %.not103, label %.thread, label %25

25:                                               ; preds = %15
  %26 = icmp ult i64 %4, %24
  br i1 %26, label %27, label %28

27:                                               ; preds = %25
  tail call void @ERR_new() #3
  tail call void @ERR_set_debug(ptr noundef nonnull @.str, i32 noundef 166, ptr noundef nonnull @__func__.ossl_ec_GF2m_simple_point2oct) #3
  tail call void (i32, i32, ptr, ...) @ERR_set_error(i32 noundef 16, i32 noundef 100, ptr noundef null) #3
  br label %81

28:                                               ; preds = %25
  %29 = icmp eq ptr %5, null
  br i1 %29, label %30, label %33

30:                                               ; preds = %28
  %31 = tail call ptr @BN_CTX_new() #3
  %32 = icmp eq ptr %31, null
  br i1 %32, label %82, label %33

33:                                               ; preds = %30, %28
  %.291 = phi ptr [ %31, %30 ], [ %5, %28 ]
  %.2 = phi ptr [ %31, %30 ], [ null, %28 ]
  tail call void @BN_CTX_start(ptr noundef nonnull %.291) #3
  %34 = tail call ptr @BN_CTX_get(ptr noundef nonnull %.291) #3
  %35 = tail call ptr @BN_CTX_get(ptr noundef nonnull %.291) #3
  %36 = tail call ptr @BN_CTX_get(ptr noundef nonnull %.291) #3
  %37 = icmp eq ptr %36, null
  br i1 %37, label %80, label %38

38:                                               ; preds = %33
  %39 = tail call i32 @EC_POINT_get_affine_coordinates(ptr noundef %0, ptr noundef %1, ptr noundef %34, ptr noundef %35, ptr noundef nonnull %.291) #3
  %.not104 = icmp eq i32 %39, 0
  br i1 %.not104, label %80, label %40

40:                                               ; preds = %38
  %41 = trunc nuw i32 %2 to i8
  store i8 %41, ptr %3, align 1, !tbaa !22
  br i1 %.not127, label %54, label %42

42:                                               ; preds = %40
  %43 = tail call i32 @BN_is_zero(ptr noundef %34) #3
  %.not105 = icmp eq i32 %43, 0
  br i1 %.not105, label %44, label %54

44:                                               ; preds = %42
  %45 = load ptr, ptr %0, align 8, !tbaa !16
  %46 = getelementptr inbounds nuw i8, ptr %45, i64 264
  %47 = load ptr, ptr %46, align 8, !tbaa !19
  %48 = tail call i32 %47(ptr noundef nonnull %0, ptr noundef nonnull %36, ptr noundef %35, ptr noundef %34, ptr noundef nonnull %.291) #3
  %.not106 = icmp eq i32 %48, 0
  br i1 %.not106, label %80, label %49

49:                                               ; preds = %44
  %50 = tail call i32 @BN_is_odd(ptr noundef nonnull %36) #3
  %.not107 = icmp eq i32 %50, 0
  br i1 %.not107, label %54, label %51

51:                                               ; preds = %49
  %52 = load i8, ptr %3, align 1, !tbaa !22
  %53 = add i8 %52, 1
  store i8 %53, ptr %3, align 1, !tbaa !22
  br label %54

54:                                               ; preds = %49, %51, %42, %40
  %55 = tail call i32 @BN_num_bits(ptr noundef %34) #3
  %56 = add nsw i32 %55, 7
  %.neg = sdiv i32 %56, -8
  %narrow = add nsw i32 %.neg, %18
  %57 = icmp ugt i32 %narrow, %18
  br i1 %57, label %.sink.split, label %.preheader128

.preheader128:                                    ; preds = %54
  %.not108129 = icmp eq i32 %narrow, 0
  br i1 %.not108129, label %._crit_edge, label %.lr.ph.preheader

.lr.ph.preheader:                                 ; preds = %.preheader128
  %58 = sext i32 %narrow to i64
  %scevgep = getelementptr i8, ptr %3, i64 1
  tail call void @llvm.memset.p0.i64(ptr align 1 %scevgep, i8 0, i64 %58, i1 false), !tbaa !22
  %narrow140 = add nsw i32 %18, %.neg
  %59 = sext i32 %narrow140 to i64
  %60 = add nsw i64 %59, 1
  br label %._crit_edge

._crit_edge:                                      ; preds = %.lr.ph.preheader, %.preheader128
  %.085.lcssa = phi i64 [ 1, %.preheader128 ], [ %60, %.lr.ph.preheader ]
  %61 = getelementptr inbounds nuw i8, ptr %3, i64 %.085.lcssa
  %62 = tail call i32 @BN_bn2bin(ptr noundef %34, ptr noundef nonnull %61) #3
  %63 = sext i32 %62 to i64
  %64 = add nsw i64 %.085.lcssa, %63
  %.not109 = icmp eq i64 %64, %21
  br i1 %.not109, label %65, label %.sink.split

65:                                               ; preds = %._crit_edge
  %or.cond5.not = icmp samesign ult i32 %2, 4
  br i1 %or.cond5.not, label %78, label %66

66:                                               ; preds = %65
  %67 = tail call i32 @BN_num_bits(ptr noundef %35) #3
  %68 = add nsw i32 %67, 7
  %.neg111 = sdiv i32 %68, -8
  %narrow110 = add nsw i32 %.neg111, %18
  %69 = icmp ugt i32 %narrow110, %18
  br i1 %69, label %.sink.split, label %.preheader

.preheader:                                       ; preds = %66
  %.not112132 = icmp eq i32 %narrow110, 0
  br i1 %.not112132, label %._crit_edge136, label %.lr.ph135.preheader

.lr.ph135.preheader:                              ; preds = %.preheader
  %70 = sext i32 %narrow110 to i64
  %scevgep139 = getelementptr i8, ptr %3, i64 %21
  tail call void @llvm.memset.p0.i64(ptr align 1 %scevgep139, i8 0, i64 %70, i1 false), !tbaa !22
  %71 = sext i32 %.neg111 to i64
  %72 = add nsw i64 %21, %19
  %73 = add nsw i64 %72, %71
  br label %._crit_edge136

._crit_edge136:                                   ; preds = %.lr.ph135.preheader, %.preheader
  %.287.lcssa = phi i64 [ %21, %.preheader ], [ %73, %.lr.ph135.preheader ]
  %74 = getelementptr inbounds nuw i8, ptr %3, i64 %.287.lcssa
  %75 = tail call i32 @BN_bn2bin(ptr noundef %35, ptr noundef nonnull %74) #3
  %76 = sext i32 %75 to i64
  %77 = add nsw i64 %.287.lcssa, %76
  br label %78

78:                                               ; preds = %65, %._crit_edge136
  %.186 = phi i64 [ %77, %._crit_edge136 ], [ %21, %65 ]
  %.not113 = icmp eq i64 %.186, %24
  br i1 %.not113, label %79, label %.sink.split

79:                                               ; preds = %78
  tail call void @BN_CTX_end(ptr noundef nonnull %.291) #3
  br label %.thread

.thread:                                          ; preds = %15, %79
  %.1119 = phi ptr [ %.2, %79 ], [ null, %15 ]
  tail call void @BN_CTX_free(ptr noundef %.1119) #3
  br label %82

.sink.split:                                      ; preds = %78, %66, %._crit_edge, %54
  %.sink = phi i32 [ 201, %54 ], [ 211, %._crit_edge ], [ 219, %66 ], [ 231, %78 ]
  tail call void @ERR_new() #3
  tail call void @ERR_set_debug(ptr noundef nonnull @.str, i32 noundef %.sink, ptr noundef nonnull @__func__.ossl_ec_GF2m_simple_point2oct) #3
  tail call void (i32, i32, ptr, ...) @ERR_set_error(i32 noundef 16, i32 noundef 786691, ptr noundef null) #3
  br label %80

80:                                               ; preds = %.sink.split, %33, %44, %38
  tail call void @BN_CTX_end(ptr noundef nonnull %.291) #3
  br label %81

81:                                               ; preds = %7, %27, %80
  %.0126 = phi ptr [ %.2, %80 ], [ null, %7 ], [ null, %27 ]
  tail call void @BN_CTX_free(ptr noundef %.0126) #3
  br label %82

82:                                               ; preds = %30, %10, %14, %81, %.thread, %13
  %.088 = phi i64 [ 0, %81 ], [ 0, %13 ], [ %24, %.thread ], [ 1, %14 ], [ 1, %10 ], [ 0, %30 ]
  ret i64 %.088
}